target datalayout = "e-m:e-p270:32:32-p271:32:32-p272:64:64-i64:64-i128:128-f80:128-n8:16:32:64-S128"
target triple = "x86_64-pc-linux-gnu"

%class.aiVector3t = type { double, double, double }
%"class.std::vector.11" = type { %"struct.std::_Vector_base.12" }
%"struct.std::_Vector_base.12" = type { %"struct.std::_Vector_base<double, std::allocator<double>>::_Vector_impl" }
%"struct.std::_Vector_base<double, std::allocator<double>>::_Vector_impl" = type { %"struct.std::_Vector_base<double, std::allocator<double>>::_Vector_impl_data" }
%"struct.std::_Vector_base<double, std::allocator<double>>::_Vector_impl_data" = type { ptr, ptr, ptr }
%"class.std::bitset" = type { %"struct.std::_Base_bitset" }
%"struct.std::_Base_bitset" = type { i64 }
%"class.Assimp::STEP::Object" = type { ptr, i64, ptr }
%"struct.Assimp::IFC::Schema_2x3::IfcGeometricRepresentationItem.base" = type { %"struct.Assimp::IFC::Schema_2x3::IfcRepresentationItem.base", [7 x i8], %"struct.Assimp::STEP::ObjectHelper.base.91" }
%"struct.Assimp::IFC::Schema_2x3::IfcRepresentationItem.base" = type { %"struct.Assimp::STEP::ObjectHelper.base.89" }
%"struct.Assimp::STEP::ObjectHelper.base.89" = type <{ ptr, i8 }>
%"struct.Assimp::STEP::ObjectHelper.base.91" = type <{ ptr, i8 }>
%"struct.Assimp::IFC::Schema_2x3::IfcDirection" = type { %"struct.Assimp::IFC::Schema_2x3::IfcGeometricRepresentationItem.base", %"struct.Assimp::STEP::ObjectHelper.base.100", %"struct.Assimp::STEP::ListOf.101", %"class.Assimp::STEP::Object" }
%"struct.Assimp::STEP::ObjectHelper.base.100" = type { ptr, %"class.std::bitset" }
%"struct.Assimp::STEP::ListOf.101" = type { %"class.std::vector.11" }

@.str.22 = private unnamed_addr constant [87 x i8] c"direction vector magnitude too small, normalization would result in a division by zero\00", align 1

; Function Attrs: inlinehint mustprogress nounwind uwtable
define linkonce_odr hidden noundef double @_ZNK10aiVector3tIdE12SquareLengthEv(ptr noundef nonnull align 8 dereferenceable(24) %0) #3 comdat align 2 {
  %2 = alloca ptr, align 8
  store ptr %0, ptr %2, align 8
  %3 = load ptr, ptr %2, align 8
  %4 = getelementptr inbounds nuw %class.aiVector3t, ptr %3, i32 0, i32 0
  %5 = load double, ptr %4, align 8
  %6 = getelementptr inbounds nuw %class.aiVector3t, ptr %3, i32 0, i32 0
  %7 = load double, ptr %6, align 8
  %8 = getelementptr inbounds nuw %class.aiVector3t, ptr %3, i32 0, i32 1
  %9 = load double, ptr %8, align 8
  %10 = getelementptr inbounds nuw %class.aiVector3t, ptr %3, i32 0, i32 1
  %11 = load double, ptr %10, align 8
  %12 = fmul double %9, %11
  %13 = call double @llvm.fmuladd.f64(double %5, double %7, double %12)
  %14 = getelementptr inbounds nuw %class.aiVector3t, ptr %3, i32 0, i32 2
  %15 = load double, ptr %14, align 8
  %16 = getelementptr inbounds nuw %class.aiVector3t, ptr %3, i32 0, i32 2
  %17 = load double, ptr %16, align 8
  %18 = call double @llvm.fmuladd.f64(double %15, double %17, double %13)
  ret double %18
}

; Function Attrs: inlinehint mustprogress nounwind uwtable
define linkonce_odr hidden noundef nonnull align 8 dereferenceable(24) ptr @_ZN10aiVector3tIdEdVEd(ptr noundef nonnull align 8 dereferenceable(24) %0, double noundef %1) #3 comdat align 2 {
  %3 = alloca ptr, align 8
  %4 = alloca ptr, align 8
  %5 = alloca double, align 8
  %6 = alloca double, align 8
  store ptr %0, ptr %4, align 8
  store double %1, ptr %5, align 8
  %7 = load ptr, ptr %4, align 8
  %8 = load double, ptr %5, align 8
  %9 = fcmp oeq double %8, 0.000000e+00
  br i1 %9, label %10, label %11

10:                                               ; preds = %2
  store ptr %7, ptr %3, align 8
  br label %26

11:                                               ; preds = %2
  call void @llvm.lifetime.start.p0(i64 8, ptr %6) #20
  %12 = load double, ptr %5, align 8
  %13 = fdiv double 1.000000e+00, %12
  store double %13, ptr %6, align 8
  %14 = load double, ptr %6, align 8
  %15 = getelementptr inbounds nuw %class.aiVector3t, ptr %7, i32 0, i32 0
  %16 = load double, ptr %15, align 8
  %17 = fmul double %16, %14
  store double %17, ptr %15, align 8
  %18 = load double, ptr %6, align 8
  %19 = getelementptr inbounds nuw %class.aiVector3t, ptr %7, i32 0, i32 1
  %20 = load double, ptr %19, align 8
  %21 = fmul double %20, %18
  store double %21, ptr %19, align 8
  %22 = load double, ptr %6, align 8
  %23 = getelementptr inbounds nuw %class.aiVector3t, ptr %7, i32 0, i32 2
  %24 = load double, ptr %23, align 8
  %25 = fmul double %24, %22
  store double %25, ptr %23, align 8
  store ptr %7, ptr %3, align 8
  call void @llvm.lifetime.end.p0(i64 8, ptr %6) #20
  br label %26

26:                                               ; preds = %11, %10
  %27 = load ptr, ptr %3, align 8
  ret ptr %27
}

; Function Attrs: mustprogress uwtable
define linkonce_odr hidden void @_ZN6Assimp12LogFunctionsINS_11IFCImporterEE7LogWarnIJRA87_KcEEEvDpOT_(ptr noundef nonnull align 1 dereferenceable(87) %0) #0 comdat align 2 {
  %2 = alloca ptr, align 8
  %3 = alloca ptr, align 8
  store ptr %0, ptr %2, align 8
  %4 = call noundef zeroext i1 @_ZN6Assimp13DefaultLogger12isNullLoggerEv()
  br i1 %4, label %9, label %5

5:                                                ; preds = %1
  %6 = call noundef ptr @_ZN6Assimp13DefaultLogger3getEv()
  call void @llvm.lifetime.start.p0(i64 8, ptr %3) #20
  %7 = call noundef ptr @_ZN6Assimp12LogFunctionsINS_11IFCImporterEE6PrefixEv()
  store ptr %7, ptr %3, align 8
  %8 = load ptr, ptr %2, align 8
  call void @_ZN6Assimp6Logger4warnIJPKcRA87_S2_EEEvDpOT_(ptr noundef nonnull align 8 dereferenceable(12) %6, ptr noundef nonnull align 8 dereferenceable(8) %3, ptr noundef nonnull align 1 dereferenceable(87) %8)
  call void @llvm.lifetime.end.p0(i64 8, ptr %3) #20
  br label %9

9:                                                ; preds = %5, %1
  ret void
}

; Function Attrs: inlinehint mustprogress nounwind uwtable
define linkonce_odr hidden noundef double @_ZNK10aiVector3tIdE6LengthEv(ptr noundef nonnull align 8 dereferenceable(24) %0) #3 comdat align 2 {
  %2 = alloca ptr, align 8
  store ptr %0, ptr %2, align 8
  %3 = load ptr, ptr %2, align 8
  %4 = call noundef double @_ZNK10aiVector3tIdE12SquareLengthEv(ptr noundef nonnull align 8 dereferenceable(24) %3)
  %5 = call double @sqrt(double noundef %4) #20
  ret double %5
}

; Function Attrs: inlinehint mustprogress nounwind uwtable
define linkonce_odr hidden noundef nonnull align 8 dereferenceable(8) ptr @_ZN10aiVector3tIdEixEj(ptr noundef nonnull align 8 dereferenceable(24) %0, i32 noundef %1) #3 comdat align 2 {
  %3 = alloca ptr, align 8
  %4 = alloca ptr, align 8
  %5 = alloca i32, align 4
  store ptr %0, ptr %4, align 8
  store i32 %1, ptr %5, align 4
  %6 = load ptr, ptr %4, align 8
  %7 = load i32, ptr %5, align 4
  switch i32 %7, label %14 [
    i32 0, label %8
    i32 1, label %10
    i32 2, label %12
  ]

8:                                                ; preds = %2
  %9 = getelementptr inbounds nuw %class.aiVector3t, ptr %6, i32 0, i32 0
  store ptr %9, ptr %3, align 8
  br label %17

10:                                               ; preds = %2
  %11 = getelementptr inbounds nuw %class.aiVector3t, ptr %6, i32 0, i32 1
  store ptr %11, ptr %3, align 8
  br label %17

12:                                               ; preds = %2
  %13 = getelementptr inbounds nuw %class.aiVector3t, ptr %6, i32 0, i32 2
  store ptr %13, ptr %3, align 8
  br label %17

14:                                               ; preds = %2
  br label %15

15:                                               ; preds = %14
  %16 = getelementptr inbounds nuw %class.aiVector3t, ptr %6, i32 0, i32 0
  store ptr %16, ptr %3, align 8
  br label %17

17:                                               ; preds = %15, %12, %10, %8
  %18 = load ptr, ptr %3, align 8
  ret ptr %18
}

; Function Attrs: mustprogress nounwind uwtable
define linkonce_odr noundef nonnull align 8 dereferenceable(8) ptr @_ZNKSt6vectorIdSaIdEEixEm(ptr noundef nonnull align 8 dereferenceable(24) %0, i64 noundef %1) #1 comdat align 2 {
  %3 = alloca ptr, align 8
  %4 = alloca i64, align 8
  store ptr %0, ptr %3, align 8
  store i64 %1, ptr %4, align 8
  %5 = load ptr, ptr %3, align 8
  %6 = getelementptr inbounds nuw %"struct.std::_Vector_base.12", ptr %5, i32 0, i32 0
  %7 = getelementptr inbounds nuw %"struct.std::_Vector_base<double, std::allocator<double>>::_Vector_impl_data", ptr %6, i32 0, i32 0
  %8 = load ptr, ptr %7, align 8
  %9 = load i64, ptr %4, align 8
  %10 = getelementptr inbounds nuw double, ptr %8, i64 %9
  ret ptr %10
}

; Function Attrs: mustprogress nounwind uwtable
define linkonce_odr noundef i64 @_ZNKSt6vectorIdSaIdEE4sizeEv(ptr noundef nonnull align 8 dereferenceable(24) %0) #1 comdat align 2 {
  %2 = alloca ptr, align 8
  store ptr %0, ptr %2, align 8
  %3 = load ptr, ptr %2, align 8
  %4 = getelementptr inbounds nuw %"struct.std::_Vector_base.12", ptr %3, i32 0, i32 0
  %5 = getelementptr inbounds nuw %"struct.std::_Vector_base<double, std::allocator<double>>::_Vector_impl_data", ptr %4, i32 0, i32 1
  %6 = load ptr, ptr %5, align 8
  %7 = getelementptr inbounds nuw %"struct.std::_Vector_base.12", ptr %3, i32 0, i32 0
  %8 = getelementptr inbounds nuw %"struct.std::_Vector_base<double, std::allocator<double>>::_Vector_impl_data", ptr %7, i32 0, i32 0
  %9 = load ptr, ptr %8, align 8
  %10 = ptrtoint ptr %6 to i64
  %11 = ptrtoint ptr %9 to i64
  %12 = sub i64 %10, %11
  %13 = sdiv exact i64 %12, 8
  ret i64 %13
}

; Function Attrs: mustprogress nounwind uwtable
define linkonce_odr hidden void @_ZN10aiVector3tIdEC2Ev(ptr noundef nonnull align 8 dereferenceable(24) %0) unnamed_addr #1 comdat align 2 {
  %2 = alloca ptr, align 8
  store ptr %0, ptr %2, align 8
  %3 = load ptr, ptr %2, align 8
  %4 = getelementptr inbounds nuw %class.aiVector3t, ptr %3, i32 0, i32 0
  store double 0.000000e+00, ptr %4, align 8
  %5 = getelementptr inbounds nuw %class.aiVector3t, ptr %3, i32 0, i32 1
  store double 0.000000e+00, ptr %5, align 8
  %6 = getelementptr inbounds nuw %class.aiVector3t, ptr %3, i32 0, i32 2
  store double 0.000000e+00, ptr %6, align 8
  ret void
}

; Function Attrs: mustprogress uwtable
define hidden void @_ZN6Assimp3IFC16ConvertDirectionER10aiVector3tIdERKNS0_10Schema_2x312IfcDirectionE(ptr noundef nonnull align 8 dereferenceable(24) %0, ptr noundef nonnull align 8 dereferenceable(72) %1) #0 {
  %3 = alloca ptr, align 8
  %4 = alloca ptr, align 8
  %5 = alloca %class.aiVector3t, align 8
  %6 = alloca i64, align 8
  %7 = alloca double, align 8
  %8 = alloca i32, align 4
  store ptr %0, ptr %3, align 8
  store ptr %1, ptr %4, align 8
  call void @llvm.lifetime.start.p0(i64 24, ptr %5) #20
  call void @_ZN10aiVector3tIdEC2Ev(ptr noundef nonnull align 8 dereferenceable(24) %5) #20
  %9 = load ptr, ptr %3, align 8
  call void @llvm.memcpy.p0.p0.i64(ptr align 8 %9, ptr align 8 %5, i64 24, i1 false)
  call void @llvm.lifetime.end.p0(i64 24, ptr %5) #20
  call void @llvm.lifetime.start.p0(i64 8, ptr %6) #20
  store i64 0, ptr %6, align 8
  br label %10

10:                                               ; preds = %27, %2
  %11 = load i64, ptr %6, align 8
  %12 = load ptr, ptr %4, align 8
  %13 = getelementptr inbounds nuw %"struct.Assimp::IFC::Schema_2x3::IfcDirection", ptr %12, i32 0, i32 2
  %14 = call noundef i64 @_ZNKSt6vectorIdSaIdEE4sizeEv(ptr noundef nonnull align 8 dereferenceable(24) %13) #20
  %15 = icmp ult i64 %11, %14
  br i1 %15, label %17, label %16

16:                                               ; preds = %10
  call void @llvm.lifetime.end.p0(i64 8, ptr %6) #20
  br label %30

17:                                               ; preds = %10
  %18 = load ptr, ptr %4, align 8
  %19 = getelementptr inbounds nuw %"struct.Assimp::IFC::Schema_2x3::IfcDirection", ptr %18, i32 0, i32 2
  %20 = load i64, ptr %6, align 8
  %21 = call noundef nonnull align 8 dereferenceable(8) ptr @_ZNKSt6vectorIdSaIdEEixEm(ptr noundef nonnull align 8 dereferenceable(24) %19, i64 noundef %20) #20
  %22 = load double, ptr %21, align 8
  %23 = load ptr, ptr %3, align 8
  %24 = load i64, ptr %6, align 8
  %25 = trunc i64 %24 to i32
  %26 = call noundef nonnull align 8 dereferenceable(8) ptr @_ZN10aiVector3tIdEixEj(ptr noundef nonnull align 8 dereferenceable(24) %23, i32 noundef %25)
  store double %22, ptr %26, align 8
  br label %27

27:                                               ; preds = %17
  %28 = load i64, ptr %6, align 8
  %29 = add i64 %28, 1
  store i64 %29, ptr %6, align 8
  br label %10, !llvm.loop !31

30:                                               ; preds = %16
  call void @llvm.lifetime.start.p0(i64 8, ptr %7) #20
  %31 = load ptr, ptr %3, align 8
  %32 = call noundef double @_ZNK10aiVector3tIdE6LengthEv(ptr noundef nonnull align 8 dereferenceable(24) %31)
  store double %32, ptr %7, align 8
  %33 = load double, ptr %7, align 8
  %34 = fcmp olt double %33, 0x3EB0C6F7A0000000
  br i1 %34, label %35, label %36

35:                                               ; preds = %30
  call void @_ZN6Assimp12LogFunctionsINS_11IFCImporterEE7LogWarnIJRA87_KcEEEvDpOT_(ptr noundef nonnull align 1 dereferenceable(87) @.str.22)
  store i32 1, ptr %8, align 4
  br label %40

36:                                               ; preds = %30
  %37 = load double, ptr %7, align 8
  %38 = load ptr, ptr %3, align 8
  %39 = call noundef nonnull align 8 dereferenceable(24) ptr @_ZN10aiVector3tIdEdVEd(ptr noundef nonnull align 8 dereferenceable(24) %38, double noundef %37)
  store i32 0, ptr %8, align 4
  br label %40

40:                                               ; preds = %36, %35
  call void @llvm.lifetime.end.p0(i64 8, ptr %7) #20
  %41 = load i32, ptr %8, align 4
  switch i32 %41, label %43 [
    i32 0, label %42
    i32 1, label %42
  ]

42:                                               ; preds = %40, %40
  ret void

43:                                               ; preds = %40
  unreachable
}