; Function Attrs: mustprogress uwtable
define hidden void @_ZN6Assimp3IFC16ConvertDirectionER10aiVector3tIdERKNS0_10Schema_2x312IfcDirectionE(ptr noundef nonnull align 8 captures(none) dereferenceable(24) initializes((0, 24)) %0, ptr noundef nonnull readonly align 8 captures(none) dereferenceable(72) %1) local_unnamed_addr #7 {
  %3 = alloca ptr, align 8
  tail call void @llvm.memset.p0.i64(ptr noundef nonnull align 8 dereferenceable(24) %0, i8 0, i64 24, i1 false)
  %4 = getelementptr inbounds nuw i8, ptr %1, i64 48
  %5 = getelementptr inbounds nuw i8, ptr %1, i64 56
  %6 = load ptr, ptr %5, align 8
  %7 = load ptr, ptr %4, align 8
  %.not = icmp eq ptr %6, %7
  br i1 %.not, label %._crit_edge, label %.lr.ph

.lr.ph:                                           ; preds = %2
  %8 = getelementptr inbounds nuw i8, ptr %0, i64 8
  %9 = getelementptr inbounds nuw i8, ptr %0, i64 16
  br label %19

._crit_edge:                                      ; preds = %_ZN10aiVector3tIdEixEj.exit, %2
  %10 = load double, ptr %0, align 8
  %11 = getelementptr inbounds nuw i8, ptr %0, i64 8
  %12 = load double, ptr %11, align 8
  %13 = fmul double %12, %12
  %14 = tail call double @llvm.fmuladd.f64(double %10, double %10, double %13)
  %15 = getelementptr inbounds nuw i8, ptr %0, i64 16
  %16 = load double, ptr %15, align 8
  %17 = tail call noundef double @llvm.fmuladd.f64(double %16, double %16, double %14)
  %sqrt.i = tail call noundef double @llvm.sqrt.f64(double %17)
  %18 = fcmp olt double %sqrt.i, 0x3EB0C6F7A0000000
  br i1 %18, label %34, label %39

19:                                               ; preds = %.lr.ph, %_ZN10aiVector3tIdEixEj.exit
  %20 = phi ptr [ %7, %.lr.ph ], [ %28, %_ZN10aiVector3tIdEixEj.exit ]
  %.012 = phi i64 [ 0, %.lr.ph ], [ %26, %_ZN10aiVector3tIdEixEj.exit ]
  %21 = getelementptr inbounds nuw double, ptr %20, i64 %.012
  %22 = load double, ptr %21, align 8
  %23 = trunc i64 %.012 to i32
  switch i32 %23, label %_ZN10aiVector3tIdEixEj.exit [
    i32 2, label %25
    i32 1, label %24
  ]

24:                                               ; preds = %19
  br label %_ZN10aiVector3tIdEixEj.exit

25:                                               ; preds = %19
  br label %_ZN10aiVector3tIdEixEj.exit

_ZN10aiVector3tIdEixEj.exit:                      ; preds = %19, %24, %25
  %.0.i = phi ptr [ %9, %25 ], [ %8, %24 ], [ %0, %19 ]
  store double %22, ptr %.0.i, align 8
  %26 = add nuw i64 %.012, 1
  %27 = load ptr, ptr %5, align 8
  %28 = load ptr, ptr %4, align 8
  %29 = ptrtoint ptr %27 to i64
  %30 = ptrtoint ptr %28 to i64
  %31 = sub i64 %29, %30
  %32 = ashr exact i64 %31, 3
  %33 = icmp ult i64 %26, %32
  br i1 %33, label %19, label %._crit_edge, !llvm.loop !153

34:                                               ; preds = %._crit_edge
  %35 = tail call noundef zeroext i1 @_ZN6Assimp13DefaultLogger12isNullLoggerEv()
  br i1 %35, label %_ZN6Assimp12LogFunctionsINS_11IFCImporterEE7LogWarnIJRA87_KcEEEvDpOT_.exit, label %36

36:                                               ; preds = %34
  %37 = tail call noundef ptr @_ZN6Assimp13DefaultLogger3getEv()
  call void @llvm.lifetime.start.p0(i64 8, ptr nonnull %3) #25
  %38 = tail call noundef ptr @_ZN6Assimp12LogFunctionsINS_11IFCImporterEE6PrefixEv()
  store ptr %38, ptr %3, align 8
  call void @_ZN6Assimp6Logger4warnIJPKcRA87_S2_EEEvDpOT_(ptr noundef nonnull align 8 dereferenceable(12) %37, ptr noundef nonnull align 8 dereferenceable(8) %3, ptr noundef nonnull align 1 dereferenceable(87) @.str.22)
  call void @llvm.lifetime.end.p0(i64 8, ptr nonnull %3) #25
  br label %_ZN6Assimp12LogFunctionsINS_11IFCImporterEE7LogWarnIJRA87_KcEEEvDpOT_.exit

39:                                               ; preds = %._crit_edge
  %40 = fdiv double 1.000000e+00, %sqrt.i
  %41 = fmul double %10, %40
  store double %41, ptr %0, align 8
  %42 = fmul double %12, %40
  store double %42, ptr %11, align 8
  %43 = fmul double %16, %40
  store double %43, ptr %15, align 8
  br label %_ZN6Assimp12LogFunctionsINS_11IFCImporterEE7LogWarnIJRA87_KcEEEvDpOT_.exit

_ZN6Assimp12LogFunctionsINS_11IFCImporterEE7LogWarnIJRA87_KcEEEvDpOT_.exit: ; preds = %39, %36, %34
  ret void
}